target datalayout = "e-m:e-p270:32:32-p271:32:32-p272:64:64-i64:64-i128:128-f80:128-n8:16:32:64-S128"
target triple = "x86_64-pc-linux-gnu"

; Function Attrs: mustprogress uwtable
define hidden void @_ZN7datalog17rule_dependencies8populateEjPKPNS_4ruleE(ptr noundef nonnull align 8 dereferenceable(88) %0, i32 noundef %1, ptr noundef %2) #4 align 2 {
  %4 = alloca ptr, align 8
  %5 = alloca i32, align 4
  %6 = alloca ptr, align 8
  %7 = alloca i32, align 4
  store ptr %0, ptr %4, align 8, !tbaa !3
  store i32 %1, ptr %5, align 4, !tbaa !18
  store ptr %2, ptr %6, align 8, !tbaa !76
  %8 = load ptr, ptr %4, align 8
  call void @llvm.lifetime.start.p0(i64 4, ptr %7) #3
  store i32 0, ptr %7, align 4, !tbaa !18
  br label %9

9:                                                ; preds = %20, %3
  %10 = load i32, ptr %7, align 4, !tbaa !18
  %11 = load i32, ptr %5, align 4, !tbaa !18
  %12 = icmp ult i32 %10, %11
  br i1 %12, label %14, label %13

13:                                               ; preds = %9
  call void @llvm.lifetime.end.p0(i64 4, ptr %7) #3
  br label %23

14:                                               ; preds = %9
  %15 = load ptr, ptr %6, align 8, !tbaa !76
  %16 = load i32, ptr %7, align 4, !tbaa !18
  %17 = zext i32 %16 to i64
  %18 = getelementptr inbounds nuw ptr, ptr %15, i64 %17
  %19 = load ptr, ptr %18, align 8, !tbaa !78
  call void @_ZN7datalog17rule_dependencies8populateEPKNS_4ruleE(ptr noundef nonnull align 8 dereferenceable(88) %8, ptr noundef %19)
  br label %20

20:                                               ; preds = %14
  %21 = load i32, ptr %7, align 4, !tbaa !18
  %22 = add i32 %21, 1
  store i32 %22, ptr %7, align 4, !tbaa !18
  br label %9, !llvm.loop !96

23:                                               ; preds = %13
  ret void
}