; Function Attrs: mustprogress uwtable
define hidden void @_ZN7datalog17rule_dependencies8populateEjPKPNS_4ruleE(ptr noundef nonnull align 8 dereferenceable(88) %0, i32 noundef %1, ptr noundef readonly captures(none) %2) local_unnamed_addr #3 align 2 {
  %.not = icmp eq i32 %1, 0
  br i1 %.not, label %._crit_edge, label %.lr.ph.preheader

.lr.ph.preheader:                                 ; preds = %3
  %wide.trip.count = zext i32 %1 to i64
  br label %.lr.ph

._crit_edge:                                      ; preds = %.lr.ph, %3
  ret void

.lr.ph:                                           ; preds = %.lr.ph.preheader, %.lr.ph
  %indvars.iv = phi i64 [ 0, %.lr.ph.preheader ], [ %indvars.iv.next, %.lr.ph ]
  %4 = getelementptr inbounds nuw ptr, ptr %2, i64 %indvars.iv
  %5 = load ptr, ptr %4, align 8, !tbaa !84
  tail call void @_ZN7datalog17rule_dependencies8populateEPKNS_4ruleE(ptr noundef nonnull align 8 dereferenceable(88) %0, ptr noundef %5)
  %indvars.iv.next = add nuw nsw i64 %indvars.iv, 1
  %exitcond.not = icmp eq i64 %indvars.iv.next, %wide.trip.count
  br i1 %exitcond.not, label %._crit_edge, label %.lr.ph, !llvm.loop !123
}